ccopy_reg
_reconstructor
p0
(cargparse
Namespace
p1
c__builtin__
object
p2
Ntp3
Rp4
(dp5
S'dis_layers'
p6
I2
sS'verbose'
p7
S'debug'
p8
sS'out_dir'
p9
S'../results_new/ft_all/'
p10
sS'n_epochs'
p11
I10
sS'adjusted_file'
p12
S'../vectors_new/ft_ono_ar_all.vectors'
p13
sS'seed'
p14
I3
sS'sim_optimizer'
p15
S'sgd,lr=0.1'
p16
sS'dis_lambda'
p17
I1
sS'map_optimizer'
p18
g16
sS'sim_loss'
p19
S'max_margin'
p20
sS'min_lr'
p21
F1e-06
sS'epoch_size'
p22
I1000000
sS'gen_hid_dim'
p23
I2048
sS'dis_input_dropout'
p24
F0.5
sS'dis_optimizer'
p25
g16
sS'sim_margin'
p26
I1
sS'dis_hid_dim'
p27
I2048
sS'lr_decay'
p28
F0.98
sS'gen_input_dropout'
p29
F0.2
sS'noise'
p30
I00
sS'gen_dropout'
p31
F0.5
sS'batch_size'
p32
I32
sS'dis_steps'
p33
I5
sS'gen_lambda'
p34
I1
sS'seen_file'
p35
S'../vectors_new/ft_ono_distrib_all.vectors'
p36
sS'sim_neg'
p37
I25
sS'gen_layers'
p38
I2
sS'lr_shrink'
p39
F0.5
sS'dataset_file'
p40
S'../vocab/simlexsimverb.words'
p41
sS'dis_smooth'
p42
F0.1
sS'sim_lambda'
p43
I1
sS'unseen_file'
p44
S'../vectors/ft_prefix.vectors'
p45
sS'emb_dim'
p46
I300
sS'cuda'
p47
I01
sS'dis_clip_weights'
p48
I0
sS'dis_dropout'
p49
F0.0
sS'normalize_embeddings'
p50
S'renorm'
p51
sb.